target datalayout = "e-m:e-p270:32:32-p271:32:32-p272:64:64-i64:64-i128:128-f80:128-n8:16:32:64-S128"
target triple = "x86_64-pc-linux-gnu"

@afalg_cipher_nids = internal global [3 x i32] [i32 419, i32 423, i32 427], align 4

; Function Attrs: nounwind uwtable
define internal i32 @afalg_ciphers(ptr noundef %0, ptr noundef %1, ptr noundef %2, i32 noundef %3) #0 {
  %5 = alloca i32, align 4
  %6 = alloca ptr, align 8
  %7 = alloca ptr, align 8
  %8 = alloca ptr, align 8
  %9 = alloca i32, align 4
  %10 = alloca i32, align 4
  %11 = alloca i32, align 4
  store ptr %0, ptr %6, align 8, !tbaa !7
  store ptr %1, ptr %7, align 8, !tbaa !35
  store ptr %2, ptr %8, align 8, !tbaa !37
  store i32 %3, ptr %9, align 4, !tbaa !20
  call void @llvm.lifetime.start.p0(i64 4, ptr %10) #11
  store i32 1, ptr %10, align 4, !tbaa !20
  %12 = load ptr, ptr %7, align 8, !tbaa !35
  %13 = icmp eq ptr %12, null
  br i1 %13, label %14, label %16

14:                                               ; preds = %4
  %15 = load ptr, ptr %8, align 8, !tbaa !37
  store ptr @afalg_cipher_nids, ptr %15, align 8, !tbaa !39
  store i32 3, ptr %5, align 4
  store i32 1, ptr %11, align 4
  br label %26

16:                                               ; preds = %4
  %17 = load i32, ptr %9, align 4, !tbaa !20
  switch i32 %17, label %22 [
    i32 419, label %18
    i32 423, label %18
    i32 427, label %18
  ]

18:                                               ; preds = %16, %16, %16
  %19 = load i32, ptr %9, align 4, !tbaa !20
  %20 = call ptr @afalg_aes_cbc(i32 noundef %19)
  %21 = load ptr, ptr %7, align 8, !tbaa !35
  store ptr %20, ptr %21, align 8, !tbaa !41
  br label %24

22:                                               ; preds = %16
  %23 = load ptr, ptr %7, align 8, !tbaa !35
  store ptr null, ptr %23, align 8, !tbaa !41
  store i32 0, ptr %10, align 4, !tbaa !20
  br label %24

24:                                               ; preds = %22, %18
  %25 = load i32, ptr %10, align 4, !tbaa !20
  store i32 %25, ptr %5, align 4
  store i32 1, ptr %11, align 4
  br label %26

26:                                               ; preds = %24, %14
  call void @llvm.lifetime.end.p0(i64 4, ptr %10) #11
  %27 = load i32, ptr %5, align 4
  ret i32 %27
}