; Function Attrs: nounwind uwtable
define internal range(i32 0, 4) i32 @afalg_ciphers(ptr readnone captures(none) %0, ptr noundef writeonly captures(address_is_null) %1, ptr noundef writeonly captures(none) %2, i32 noundef %3) #1 {
  %5 = icmp eq ptr %1, null
  br i1 %5, label %6, label %7

6:                                                ; preds = %4
  store ptr @afalg_cipher_nids, ptr %2, align 8, !tbaa !24
  br label %11

7:                                                ; preds = %4
  switch i32 %3, label %10 [
    i32 419, label %8
    i32 423, label %8
    i32 427, label %8
  ]

8:                                                ; preds = %7, %7, %7
  %9 = tail call fastcc ptr @afalg_aes_cbc(i32 noundef %3)
  br label %10

10:                                               ; preds = %7, %8
  %storemerge = phi ptr [ %9, %8 ], [ null, %7 ]
  %.0 = phi i32 [ 1, %8 ], [ 0, %7 ]
  store ptr %storemerge, ptr %1, align 8, !tbaa !26
  br label %11

11:                                               ; preds = %10, %6
  %.07 = phi i32 [ 3, %6 ], [ %.0, %10 ]
  ret i32 %.07
}